target datalayout = "e-m:e-p270:32:32-p271:32:32-p272:64:64-i64:64-i128:128-f80:128-n8:16:32:64-S128"
target triple = "x86_64-pc-linux-gnu"

%struct.CRYPTO_REF_COUNT = type { i32 }

@bio_type_init = internal global i32 0, align 4
@do_bio_type_init_ossl_ret_ = internal global i32 0, align 4
@.str = private unnamed_addr constant [33 x i8] c"../openssl/crypto/bio/bio_meth.c\00", align 1
@__func__.BIO_get_new_index = private unnamed_addr constant [18 x i8] c"BIO_get_new_index\00", align 1
@bio_type_count = global %struct.CRYPTO_REF_COUNT zeroinitializer, align 4

; Function Attrs: inlinehint nounwind uwtable
define internal i32 @CRYPTO_UP_REF(ptr noundef %0, ptr noundef %1) #3 {
  %3 = alloca ptr, align 8
  %4 = alloca ptr, align 8
  %5 = alloca i32, align 4
  %6 = alloca i32, align 4
  store ptr %0, ptr %3, align 8, !tbaa !7
  store ptr %1, ptr %4, align 8, !tbaa !9
  %7 = load ptr, ptr %3, align 8, !tbaa !7
  %8 = getelementptr inbounds nuw %struct.CRYPTO_REF_COUNT, ptr %7, i32 0, i32 0
  store i32 1, ptr %5, align 4, !tbaa !3
  %9 = load i32, ptr %5, align 4
  %10 = atomicrmw add ptr %8, i32 %9 monotonic, align 4
  store i32 %10, ptr %6, align 4
  %11 = load i32, ptr %6, align 4, !tbaa !3
  %12 = add nsw i32 %11, 1
  %13 = load ptr, ptr %4, align 8, !tbaa !9
  store i32 %12, ptr %13, align 4, !tbaa !3
  ret i32 1
}

; Function Attrs: nounwind uwtable
define i32 @BIO_get_new_index() #0 {
  %1 = alloca i32, align 4
  %2 = alloca i32, align 4
  %3 = alloca i32, align 4
  call void @llvm.lifetime.start.p0(i64 4, ptr %2) #4
  %4 = call i32 @CRYPTO_THREAD_run_once(ptr noundef @bio_type_init, ptr noundef @do_bio_type_init_ossl_)
  %5 = icmp ne i32 %4, 0
  br i1 %5, label %6, label %9

6:                                                ; preds = %0
  %7 = load i32, ptr @do_bio_type_init_ossl_ret_, align 4, !tbaa !3
  %8 = icmp ne i32 %7, 0
  br i1 %8, label %11, label %10

9:                                                ; preds = %0
  br i1 false, label %11, label %10

10:                                               ; preds = %9, %6
  call void @ERR_new()
  call void @ERR_set_debug(ptr noundef @.str, i32 noundef 27, ptr noundef @__func__.BIO_get_new_index)
  call void (i32, i32, ptr, ...) @ERR_set_error(i32 noundef 32, i32 noundef 524303, ptr noundef null)
  store i32 -1, ptr %1, align 4
  store i32 1, ptr %3, align 4
  br label %21

11:                                               ; preds = %9, %6
  %12 = call i32 @CRYPTO_UP_REF(ptr noundef @bio_type_count, ptr noundef %2)
  %13 = icmp ne i32 %12, 0
  br i1 %13, label %15, label %14

14:                                               ; preds = %11
  store i32 -1, ptr %1, align 4
  store i32 1, ptr %3, align 4
  br label %21

15:                                               ; preds = %11
  %16 = load i32, ptr %2, align 4, !tbaa !3
  %17 = icmp sgt i32 %16, 255
  br i1 %17, label %18, label %19

18:                                               ; preds = %15
  store i32 -1, ptr %1, align 4
  store i32 1, ptr %3, align 4
  br label %21

19:                                               ; preds = %15
  %20 = load i32, ptr %2, align 4, !tbaa !3
  store i32 %20, ptr %1, align 4
  store i32 1, ptr %3, align 4
  br label %21

21:                                               ; preds = %19, %18, %14, %10
  call void @llvm.lifetime.end.p0(i64 4, ptr %2) #4
  %22 = load i32, ptr %1, align 4
  ret i32 %22
}