; Function Attrs: nounwind uwtable
define range(i32 -2147483647, 256) i32 @BIO_get_new_index() local_unnamed_addr #0 {
  %1 = tail call i32 @CRYPTO_THREAD_run_once(ptr noundef nonnull @bio_type_init, ptr noundef nonnull @do_bio_type_init_ossl_) #6
  %2 = icmp ne i32 %1, 0
  %.b = load i1, ptr @do_bio_type_init_ossl_ret_, align 4
  %or.cond = select i1 %2, i1 %.b, i1 false
  br i1 %or.cond, label %4, label %3

3:                                                ; preds = %0
  tail call void @ERR_new() #6
  tail call void @ERR_set_debug(ptr noundef nonnull @.str, i32 noundef 27, ptr noundef nonnull @__func__.BIO_get_new_index) #6
  tail call void (i32, i32, ptr, ...) @ERR_set_error(i32 noundef 32, i32 noundef 524303, ptr noundef null) #6
  br label %8

4:                                                ; preds = %0
  %5 = atomicrmw add ptr @bio_type_count, i32 1 monotonic, align 4
  %6 = add nsw i32 %5, 1
  %7 = icmp sgt i32 %5, 254
  %spec.select = select i1 %7, i32 -1, i32 %6
  br label %8

8:                                                ; preds = %4, %3
  %.0 = phi i32 [ -1, %3 ], [ %spec.select, %4 ]
  ret i32 %.0
}